Certificate:
    Data:
        Version: 3 (0x2)
        Serial Number: 2584 (0xa18)
        Signature Algorithm: sha1WithRSAEncryption
        Issuer: C=US, ST=NY, L=New York, O=Bloomberg LP, OU=CTO Office, CN=Bloomberg LP CA/emailAddress=open-tech@bloomberg.net
        Validity
            Not Before: Jan 15 06:00:00 2015 GMT
            Not After : Jan 21 06:00:00 2015 GMT
        Subject: C=US, ST=NY, L=New York, O=Bloomberg LP, OU=CTO Office, CN=mhacks_spring_2015_162/emailAddress=open-tech@bloomberg.net
        Subject Public Key Info:
            Public Key Algorithm: rsaEncryption
            RSA Public Key: (1024 bit)
                Modulus (1024 bit):
                    00:e5:a8:cf:74:93:b9:95:d9:81:28:ef:5a:6a:d3:
                    67:37:fc:39:33:53:1f:8a:19:8a:9a:ee:6b:79:5d:
                    6d:97:70:5e:ce:68:e6:d7:29:9d:06:0e:a3:65:b2:
                    37:63:f4:bf:8f:c5:80:94:43:80:9e:1c:e1:98:bf:
                    0e:79:a8:c9:ae:19:5a:54:9a:d0:67:ac:a4:b2:2c:
                    11:45:ac:7c:83:ad:46:16:e3:9c:d4:89:8a:83:43:
                    6f:70:80:87:13:42:71:b4:4d:a2:1c:c3:b3:18:63:
                    f8:39:0a:3b:af:e0:c0:90:60:4c:5f:06:f1:51:1c:
                    b2:5a:14:17:e4:64:de:19:37
                Exponent: 65537 (0x10001)
        X509v3 extensions:
            X509v3 Basic Constraints: 
                CA:FALSE
            Netscape Comment: 
                Easy-RSA Generated Certificate
            X509v3 Subject Key Identifier: 
                51:57:FD:0B:8F:06:74:7A:41:7A:DA:79:96:03:C3:DD:6B:D4:FD:28
            X509v3 Authority Key Identifier: 
                keyid:F3:21:76:1F:DA:B5:E7:03:FC:ED:D7:71:B8:1C:55:2D:7E:65:5F:14
                DirName:/C=US/ST=NY/L=New York/O=Bloomberg LP/OU=CTO Office/CN=Bloomberg LP CA/emailAddress=open-tech@bloomberg.net
                serial:81:F3:7A:1C:BC:C6:E8:A2

            X509v3 Extended Key Usage: 
                TLS Web Client Authentication
            X509v3 Key Usage: 
                Digital Signature
    Signature Algorithm: sha1WithRSAEncryption
        7d:e1:dd:8c:41:f1:e6:88:f2:cc:ec:21:44:c4:32:4c:a1:64:
        3c:cc:8d:ec:37:b9:6a:a5:a7:83:bc:d8:58:39:08:e5:25:48:
        96:40:d8:4d:83:b5:8a:ca:7d:7a:0a:14:22:e0:12:14:74:ac:
        26:83:81:3f:88:6b:20:9c:c5:ce:84:5f:21:00:42:36:d4:56:
        9b:08:6b:41:bc:c9:ac:23:be:17:ee:d4:5e:93:6b:9f:a0:07:
        a0:fd:f4:ee:84:86:53:54:1c:d1:74:60:d1:8f:6b:f7:73:77:
        f5:ed:5e:f7:60:2d:0c:26:d5:89:b5:74:d2:a0:51:ae:41:3c:
        56:57
-----BEGIN CERTIFICATE-----
MIIECjCCA3OgAwIBAgICChgwDQYJKoZIhvcNAQEFBQAwgZsxCzAJBgNVBAYTAlVT
MQswCQYDVQQIEwJOWTERMA8GA1UEBxMITmV3IFlvcmsxFTATBgNVBAoTDEJsb29t
YmVyZyBMUDETMBEGA1UECxMKQ1RPIE9mZmljZTEYMBYGA1UEAxMPQmxvb21iZXJn
IExQIENBMSYwJAYJKoZIhvcNAQkBFhdvcGVuLXRlY2hAYmxvb21iZXJnLm5ldDAe
Fw0xNTAxMTUwNjAwMDBaFw0xNTAxMjEwNjAwMDBaMIGiMQswCQYDVQQGEwJVUzEL
MAkGA1UECBMCTlkxETAPBgNVBAcTCE5ldyBZb3JrMRUwEwYDVQQKEwxCbG9vbWJl
cmcgTFAxEzARBgNVBAsTCkNUTyBPZmZpY2UxHzAdBgNVBAMUFm1oYWNrc19zcHJp
bmdfMjAxNV8xNjIxJjAkBgkqhkiG9w0BCQEWF29wZW4tdGVjaEBibG9vbWJlcmcu
bmV0MIGfMA0GCSqGSIb3DQEBAQUAA4GNADCBiQKBgQDlqM90k7mV2YEo71pq02c3
/DkzUx+KGYqa7mt5XW2XcF7OaObXKZ0GDqNlsjdj9L+PxYCUQ4CeHOGYvw55qMmu
GVpUmtBnrKSyLBFFrHyDrUYW45zUiYqDQ29wgIcTQnG0TaIcw7MYY/g5Cjuv4MCQ
YExfBvFRHLJaFBfkZN4ZNwIDAQABo4IBUjCCAU4wCQYDVR0TBAIwADAtBglghkgB
hvhCAQ0EIBYeRWFzeS1SU0EgR2VuZXJhdGVkIENlcnRpZmljYXRlMB0GA1UdDgQW
BBRRV/0LjwZ0ekF62nmWA8Pda9T9KDCB0AYDVR0jBIHIMIHFgBTzIXYf2rXnA/zt
13G4HFUtfmVfFKGBoaSBnjCBmzELMAkGA1UEBhMCVVMxCzAJBgNVBAgTAk5ZMREw
DwYDVQQHEwhOZXcgWW9yazEVMBMGA1UEChMMQmxvb21iZXJnIExQMRMwEQYDVQQL
EwpDVE8gT2ZmaWNlMRgwFgYDVQQDEw9CbG9vbWJlcmcgTFAgQ0ExJjAkBgkqhkiG
9w0BCQEWF29wZW4tdGVjaEBibG9vbWJlcmcubmV0ggkAgfN6HLzG6KIwEwYDVR0l
BAwwCgYIKwYBBQUHAwIwCwYDVR0PBAQDAgeAMA0GCSqGSIb3DQEBBQUAA4GBAH3h
3YxB8eaI8szsIUTEMkyhZDzMjew3uWqlp4O82Fg5COUlSJZA2E2DtYrKfXoKFCLg
EhR0rCaDgT+IayCcxc6EXyEAQjbUVpsIa0G8yawjvhfu1F6Ta5+gB6D99O6EhlNU
HNF0YNGPa/dzd/XtXvdgLQwm1Ym1dNKgUa5BPFZX
-----END CERTIFICATE-----
